; ModuleID = '7/976.c'
source_filename = "7/976.c"
target datalayout = "e-m:e-p270:32:32-p271:32:32-p272:64:64-i64:64-f80:128-n8:16:32:64-S128"
target triple = "x86_64-pc-linux-gnu"

@subs = common dso_local global [300 x i8] zeroinitializer, align 16
@s = common dso_local global [300 x i8] zeroinitializer, align 16
@rep = common dso_local global [300 x i8] zeroinitializer, align 16
@.str = private unnamed_addr constant [3 x i8] c"%c\00", align 1
@.str.1 = private unnamed_addr constant [2 x i8] c"\0A\00", align 1

; Function Attrs: noinline nounwind uwtable
define dso_local i32 @ok(i32 %0) #0 {
  %2 = alloca i32, align 4
  %3 = alloca i32, align 4
  %4 = alloca i32, align 4
  store i32 %0, i32* %3, align 4
  %5 = load i32, i32* %3, align 4
  store i32 %5, i32* %4, align 4
  br label %6

6:                                                ; preds = %31, %1
  %7 = load i32, i32* %4, align 4
  %8 = sext i32 %7 to i64
  %9 = load i32, i32* %3, align 4
  %10 = sext i32 %9 to i64
  %11 = call i64 @strlen(i8* getelementptr inbounds ([300 x i8], [300 x i8]* @subs, i64 0, i64 0)) #3
  %12 = add i64 %10, %11
  %13 = sub i64 %12, 1
  %14 = icmp ule i64 %8, %13
  br i1 %14, label %15, label %34

15:                                               ; preds = %6
  %16 = load i32, i32* %4, align 4
  %17 = sext i32 %16 to i64
  %18 = getelementptr inbounds [300 x i8], [300 x i8]* @s, i64 0, i64 %17
  %19 = load i8, i8* %18, align 1
  %20 = sext i8 %19 to i32
  %21 = load i32, i32* %4, align 4
  %22 = load i32, i32* %3, align 4
  %23 = sub nsw i32 %21, %22
  %24 = sext i32 %23 to i64
  %25 = getelementptr inbounds [300 x i8], [300 x i8]* @subs, i64 0, i64 %24
  %26 = load i8, i8* %25, align 1
  %27 = sext i8 %26 to i32
  %28 = icmp ne i32 %20, %27
  br i1 %28, label %29, label %30

29:                                               ; preds = %15
  store i32 0, i32* %2, align 4
  br label %35

30:                                               ; preds = %15
  br label %31

31:                                               ; preds = %30
  %32 = load i32, i32* %4, align 4
  %33 = add nsw i32 %32, 1
  store i32 %33, i32* %4, align 4
  br label %6

34:                                               ; preds = %6
  store i32 1, i32* %2, align 4
  br label %35

35:                                               ; preds = %34, %29
  %36 = load i32, i32* %2, align 4
  ret i32 %36
}

; Function Attrs: nounwind readonly
declare dso_local i64 @strlen(i8*) #1

; Function Attrs: noinline nounwind uwtable
define dso_local i32 @main() #0 {
  %1 = alloca i32, align 4
  %2 = alloca i32, align 4
  %3 = alloca i32, align 4
  %4 = alloca i32, align 4
  %5 = alloca i32, align 4
  %6 = alloca i32, align 4
  store i32 0, i32* %1, align 4
  %7 = call i32 (i8*, ...) bitcast (i32 (...)* @gets to i32 (i8*, ...)*)(i8* getelementptr inbounds ([300 x i8], [300 x i8]* @s, i64 0, i64 0))
  %8 = call i32 (i8*, ...) bitcast (i32 (...)* @gets to i32 (i8*, ...)*)(i8* getelementptr inbounds ([300 x i8], [300 x i8]* @subs, i64 0, i64 0))
  %9 = call i32 (i8*, ...) bitcast (i32 (...)* @gets to i32 (i8*, ...)*)(i8* getelementptr inbounds ([300 x i8], [300 x i8]* @rep, i64 0, i64 0))
  store i32 -1, i32* %6, align 4
  store i32 0, i32* %2, align 4
  br label %10

10:                                               ; preds = %24, %0
  %11 = load i32, i32* %2, align 4
  %12 = sext i32 %11 to i64
  %13 = call i64 @strlen(i8* getelementptr inbounds ([300 x i8], [300 x i8]* @s, i64 0, i64 0)) #3
  %14 = call i64 @strlen(i8* getelementptr inbounds ([300 x i8], [300 x i8]* @subs, i64 0, i64 0)) #3
  %15 = sub i64 %13, %14
  %16 = icmp ule i64 %12, %15
  br i1 %16, label %17, label %27

17:                                               ; preds = %10
  %18 = load i32, i32* %2, align 4
  %19 = call i32 @ok(i32 %18)
  %20 = icmp ne i32 %19, 0
  br i1 %20, label %21, label %23

21:                                               ; preds = %17
  %22 = load i32, i32* %2, align 4
  store i32 %22, i32* %6, align 4
  br label %27

23:                                               ; preds = %17
  br label %24

24:                                               ; preds = %23
  %25 = load i32, i32* %2, align 4
  %26 = add nsw i32 %25, 1
  store i32 %26, i32* %2, align 4
  br label %10

27:                                               ; preds = %21, %10
  %28 = load i32, i32* %6, align 4
  %29 = icmp eq i32 %28, -1
  br i1 %29, label %30, label %32

30:                                               ; preds = %27
  %31 = call i32 @puts(i8* getelementptr inbounds ([300 x i8], [300 x i8]* @s, i64 0, i64 0))
  store i32 0, i32* %1, align 4
  br label %90

32:                                               ; preds = %27
  store i32 0, i32* %2, align 4
  br label %33

33:                                               ; preds = %44, %32
  %34 = load i32, i32* %2, align 4
  %35 = load i32, i32* %6, align 4
  %36 = icmp slt i32 %34, %35
  br i1 %36, label %37, label %47

37:                                               ; preds = %33
  %38 = load i32, i32* %2, align 4
  %39 = sext i32 %38 to i64
  %40 = getelementptr inbounds [300 x i8], [300 x i8]* @s, i64 0, i64 %39
  %41 = load i8, i8* %40, align 1
  %42 = sext i8 %41 to i32
  %43 = call i32 (i8*, ...) @printf(i8* getelementptr inbounds ([3 x i8], [3 x i8]* @.str, i64 0, i64 0), i32 %42)
  br label %44

44:                                               ; preds = %37
  %45 = load i32, i32* %2, align 4
  %46 = add nsw i32 %45, 1
  store i32 %46, i32* %2, align 4
  br label %33

47:                                               ; preds = %33
  store i32 0, i32* %2, align 4
  br label %48

48:                                               ; preds = %62, %47
  %49 = load i32, i32* %2, align 4
  %50 = sext i32 %49 to i64
  %51 = getelementptr inbounds [300 x i8], [300 x i8]* @rep, i64 0, i64 %50
  %52 = load i8, i8* %51, align 1
  %53 = sext i8 %52 to i32
  %54 = icmp ne i32 %53, 0
  br i1 %54, label %55, label %65

55:                                               ; preds = %48
  %56 = load i32, i32* %2, align 4
  %57 = sext i32 %56 to i64
  %58 = getelementptr inbounds [300 x i8], [300 x i8]* @rep, i64 0, i64 %57
  %59 = load i8, i8* %58, align 1
  %60 = sext i8 %59 to i32
  %61 = call i32 (i8*, ...) @printf(i8* getelementptr inbounds ([3 x i8], [3 x i8]* @.str, i64 0, i64 0), i32 %60)
  br label %62

62:                                               ; preds = %55
  %63 = load i32, i32* %2, align 4
  %64 = add nsw i32 %63, 1
  store i32 %64, i32* %2, align 4
  br label %48

65:                                               ; preds = %48
  %66 = load i32, i32* %6, align 4
  %67 = sext i32 %66 to i64
  %68 = call i64 @strlen(i8* getelementptr inbounds ([300 x i8], [300 x i8]* @subs, i64 0, i64 0)) #3
  %69 = add i64 %67, %68
  %70 = trunc i64 %69 to i32
  store i32 %70, i32* %2, align 4
  br label %71

71:                                               ; preds = %85, %65
  %72 = load i32, i32* %2, align 4
  %73 = sext i32 %72 to i64
  %74 = getelementptr inbounds [300 x i8], [300 x i8]* @s, i64 0, i64 %73
  %75 = load i8, i8* %74, align 1
  %76 = sext i8 %75 to i32
  %77 = icmp ne i32 %76, 0
  br i1 %77, label %78, label %88

78:                                               ; preds = %71
  %79 = load i32, i32* %2, align 4
  %80 = sext i32 %79 to i64
  %81 = getelementptr inbounds [300 x i8], [300 x i8]* @s, i64 0, i64 %80
  %82 = load i8, i8* %81, align 1
  %83 = sext i8 %82 to i32
  %84 = call i32 (i8*, ...) @printf(i8* getelementptr inbounds ([3 x i8], [3 x i8]* @.str, i64 0, i64 0), i32 %83)
  br label %85

85:                                               ; preds = %78
  %86 = load i32, i32* %2, align 4
  %87 = add nsw i32 %86, 1
  store i32 %87, i32* %2, align 4
  br label %71

88:                                               ; preds = %71
  %89 = call i32 (i8*, ...) @printf(i8* getelementptr inbounds ([2 x i8], [2 x i8]* @.str.1, i64 0, i64 0))
  store i32 0, i32* %1, align 4
  br label %90

90:                                               ; preds = %88, %30
  %91 = load i32, i32* %1, align 4
  ret i32 %91
}

declare dso_local i32 @gets(...) #2

declare dso_local i32 @puts(i8*) #2

declare dso_local i32 @printf(i8*, ...) #2


!llvm.module.flags = !{!0}
!llvm.ident = !{!1}

!0 = !{i32 1, !"wchar_size", i32 4}
!1 = !{!"clang version 10.0.0-4ubuntu1 "}
